target datalayout = "e-m:e-p270:32:32-p271:32:32-p272:64:64-i64:64-i128:128-f80:128-n8:16:32:64-S128"
target triple = "x86_64-pc-linux-gnu"

%struct.strbuf = type { i64, i64, ptr }
%struct.stat = type { i64, i64, i64, i32, i32, i32, i32, i64, i64, i64, i64, %struct.timespec, %struct.timespec, %struct.timespec, [3 x i64] }
%struct.timespec = type { i64, i64 }

@strbuf_slopbuf = external global [0 x i8], align 1
@.str.35 = private unnamed_addr constant [5 x i8] c"PATH\00", align 1
@__const.locate_in_PATH.buf = private unnamed_addr constant %struct.strbuf { i64 0, i64 0, ptr @strbuf_slopbuf }, align 8
@.str.36 = private unnamed_addr constant [11 x i8] c"./strbuf.h\00", align 1
@.str.37 = private unnamed_addr constant [30 x i8] c"strbuf_setlen() beyond buffer\00", align 1

; Function Attrs: inlinehint nounwind uwtable
define internal i64 @strbuf_avail(ptr noundef %0) #7 {
  %2 = alloca ptr, align 8
  store ptr %0, ptr %2, align 8, !tbaa !103
  %3 = load ptr, ptr %2, align 8, !tbaa !103
  %4 = getelementptr inbounds nuw %struct.strbuf, ptr %3, i32 0, i32 0
  %5 = load i64, ptr %4, align 8, !tbaa !168
  %6 = icmp ne i64 %5, 0
  br i1 %6, label %7, label %16

7:                                                ; preds = %1
  %8 = load ptr, ptr %2, align 8, !tbaa !103
  %9 = getelementptr inbounds nuw %struct.strbuf, ptr %8, i32 0, i32 0
  %10 = load i64, ptr %9, align 8, !tbaa !168
  %11 = load ptr, ptr %2, align 8, !tbaa !103
  %12 = getelementptr inbounds nuw %struct.strbuf, ptr %11, i32 0, i32 1
  %13 = load i64, ptr %12, align 8, !tbaa !169
  %14 = sub i64 %10, %13
  %15 = sub i64 %14, 1
  br label %17

16:                                               ; preds = %1
  br label %17

17:                                               ; preds = %16, %7
  %18 = phi i64 [ %15, %7 ], [ 0, %16 ]
  ret i64 %18
}

; Function Attrs: nounwind uwtable
define dso_local i32 @is_executable(ptr noundef %0) #0 {
  %2 = alloca i32, align 4
  %3 = alloca ptr, align 8
  %4 = alloca %struct.stat, align 8
  %5 = alloca i32, align 4
  store ptr %0, ptr %3, align 8, !tbaa !9
  call void @llvm.lifetime.start.p0(i64 144, ptr %4) #13
  %6 = load ptr, ptr %3, align 8, !tbaa !9
  %7 = call i32 @stat64(ptr noundef %6, ptr noundef %4) #13
  %8 = icmp ne i32 %7, 0
  br i1 %8, label %14, label %9

9:                                                ; preds = %1
  %10 = getelementptr inbounds nuw %struct.stat, ptr %4, i32 0, i32 3
  %11 = load i32, ptr %10, align 8, !tbaa !11
  %12 = and i32 %11, 61440
  %13 = icmp eq i32 %12, 32768
  br i1 %13, label %15, label %14

14:                                               ; preds = %9, %1
  store i32 0, ptr %2, align 4
  store i32 1, ptr %5, align 4
  br label %19

15:                                               ; preds = %9
  %16 = getelementptr inbounds nuw %struct.stat, ptr %4, i32 0, i32 3
  %17 = load i32, ptr %16, align 8, !tbaa !11
  %18 = and i32 %17, 64
  store i32 %18, ptr %2, align 4
  store i32 1, ptr %5, align 4
  br label %19

19:                                               ; preds = %15, %14
  call void @llvm.lifetime.end.p0(i64 144, ptr %4) #13
  %20 = load i32, ptr %2, align 4
  ret i32 %20
}

; Function Attrs: inlinehint nounwind uwtable
define internal void @strbuf_addstr(ptr noundef %0, ptr noundef %1) #7 {
  %3 = alloca ptr, align 8
  %4 = alloca ptr, align 8
  store ptr %0, ptr %3, align 8, !tbaa !103
  store ptr %1, ptr %4, align 8, !tbaa !9
  %5 = load ptr, ptr %3, align 8, !tbaa !103
  %6 = load ptr, ptr %4, align 8, !tbaa !9
  %7 = load ptr, ptr %4, align 8, !tbaa !9
  %8 = call i64 @strlen(ptr noundef %7) #14
  call void @strbuf_add(ptr noundef %5, ptr noundef %6, i64 noundef %8)
  ret void
}

; Function Attrs: inlinehint nounwind uwtable
define internal void @strbuf_addch(ptr noundef %0, i32 noundef %1) #7 {
  %3 = alloca ptr, align 8
  %4 = alloca i32, align 4
  store ptr %0, ptr %3, align 8, !tbaa !103
  store i32 %1, ptr %4, align 4, !tbaa !16
  %5 = load ptr, ptr %3, align 8, !tbaa !103
  %6 = call i64 @strbuf_avail(ptr noundef %5)
  %7 = icmp ne i64 %6, 0
  br i1 %7, label %10, label %8

8:                                                ; preds = %2
  %9 = load ptr, ptr %3, align 8, !tbaa !103
  call void @strbuf_grow(ptr noundef %9, i64 noundef 1)
  br label %10

10:                                               ; preds = %8, %2
  %11 = load i32, ptr %4, align 4, !tbaa !16
  %12 = trunc i32 %11 to i8
  %13 = load ptr, ptr %3, align 8, !tbaa !103
  %14 = getelementptr inbounds nuw %struct.strbuf, ptr %13, i32 0, i32 2
  %15 = load ptr, ptr %14, align 8, !tbaa !18
  %16 = load ptr, ptr %3, align 8, !tbaa !103
  %17 = getelementptr inbounds nuw %struct.strbuf, ptr %16, i32 0, i32 1
  %18 = load i64, ptr %17, align 8, !tbaa !169
  %19 = add i64 %18, 1
  store i64 %19, ptr %17, align 8, !tbaa !169
  %20 = getelementptr inbounds nuw i8, ptr %15, i64 %18
  store i8 %12, ptr %20, align 1, !tbaa !17
  %21 = load ptr, ptr %3, align 8, !tbaa !103
  %22 = getelementptr inbounds nuw %struct.strbuf, ptr %21, i32 0, i32 2
  %23 = load ptr, ptr %22, align 8, !tbaa !18
  %24 = load ptr, ptr %3, align 8, !tbaa !103
  %25 = getelementptr inbounds nuw %struct.strbuf, ptr %24, i32 0, i32 1
  %26 = load i64, ptr %25, align 8, !tbaa !169
  %27 = getelementptr inbounds nuw i8, ptr %23, i64 %26
  store i8 0, ptr %27, align 1, !tbaa !17
  ret void
}

; Function Attrs: inlinehint nounwind uwtable
define internal void @strbuf_setlen(ptr noundef %0, i64 noundef %1) #7 {
  %3 = alloca ptr, align 8
  %4 = alloca i64, align 8
  store ptr %0, ptr %3, align 8, !tbaa !103
  store i64 %1, ptr %4, align 8, !tbaa !91
  %5 = load i64, ptr %4, align 8, !tbaa !91
  %6 = load ptr, ptr %3, align 8, !tbaa !103
  %7 = getelementptr inbounds nuw %struct.strbuf, ptr %6, i32 0, i32 0
  %8 = load i64, ptr %7, align 8, !tbaa !168
  %9 = icmp ne i64 %8, 0
  br i1 %9, label %10, label %15

10:                                               ; preds = %2
  %11 = load ptr, ptr %3, align 8, !tbaa !103
  %12 = getelementptr inbounds nuw %struct.strbuf, ptr %11, i32 0, i32 0
  %13 = load i64, ptr %12, align 8, !tbaa !168
  %14 = sub i64 %13, 1
  br label %16

15:                                               ; preds = %2
  br label %16

16:                                               ; preds = %15, %10
  %17 = phi i64 [ %14, %10 ], [ 0, %15 ]
  %18 = icmp ugt i64 %5, %17
  br i1 %18, label %19, label %20

19:                                               ; preds = %16
  call void (ptr, i32, ptr, ...) @BUG_fl(ptr noundef @.str.36, i32 noundef 167, ptr noundef @.str.37) #16
  unreachable

20:                                               ; preds = %16
  %21 = load i64, ptr %4, align 8, !tbaa !91
  %22 = load ptr, ptr %3, align 8, !tbaa !103
  %23 = getelementptr inbounds nuw %struct.strbuf, ptr %22, i32 0, i32 1
  store i64 %21, ptr %23, align 8, !tbaa !169
  %24 = load ptr, ptr %3, align 8, !tbaa !103
  %25 = getelementptr inbounds nuw %struct.strbuf, ptr %24, i32 0, i32 2
  %26 = load ptr, ptr %25, align 8, !tbaa !18
  %27 = icmp ne ptr %26, @strbuf_slopbuf
  br i1 %27, label %28, label %34

28:                                               ; preds = %20
  %29 = load ptr, ptr %3, align 8, !tbaa !103
  %30 = getelementptr inbounds nuw %struct.strbuf, ptr %29, i32 0, i32 2
  %31 = load ptr, ptr %30, align 8, !tbaa !18
  %32 = load i64, ptr %4, align 8, !tbaa !91
  %33 = getelementptr inbounds nuw i8, ptr %31, i64 %32
  store i8 0, ptr %33, align 1, !tbaa !17
  br label %35

34:                                               ; preds = %20
  br label %35

35:                                               ; preds = %34, %28
  ret void
}

; Function Attrs: nounwind uwtable
define internal ptr @locate_in_PATH(ptr noundef %0) #0 {
  %2 = alloca ptr, align 8
  %3 = alloca ptr, align 8
  %4 = alloca ptr, align 8
  %5 = alloca %struct.strbuf, align 8
  %6 = alloca i32, align 4
  %7 = alloca ptr, align 8
  store ptr %0, ptr %3, align 8, !tbaa !9
  call void @llvm.lifetime.start.p0(i64 8, ptr %4) #13
  %8 = call ptr @getenv(ptr noundef @.str.35) #13
  store ptr %8, ptr %4, align 8, !tbaa !9
  call void @llvm.lifetime.start.p0(i64 24, ptr %5) #13
  call void @llvm.memcpy.p0.p0.i64(ptr align 8 %5, ptr align 8 @__const.locate_in_PATH.buf, i64 24, i1 false)
  %9 = load ptr, ptr %4, align 8, !tbaa !9
  %10 = icmp ne ptr %9, null
  br i1 %10, label %11, label %15

11:                                               ; preds = %1
  %12 = load ptr, ptr %4, align 8, !tbaa !9
  %13 = load i8, ptr %12, align 1, !tbaa !17
  %14 = icmp ne i8 %13, 0
  br i1 %14, label %16, label %15

15:                                               ; preds = %11, %1
  store ptr null, ptr %2, align 8
  store i32 1, ptr %6, align 4
  br label %51

16:                                               ; preds = %11
  br label %17

17:                                               ; preds = %49, %16
  br label %18

18:                                               ; preds = %17
  call void @llvm.lifetime.start.p0(i64 8, ptr %7) #13
  %19 = load ptr, ptr %4, align 8, !tbaa !9
  %20 = call ptr @strchrnul(ptr noundef %19, i32 noundef 58) #14
  store ptr %20, ptr %7, align 8, !tbaa !9
  call void @strbuf_setlen(ptr noundef %5, i64 noundef 0)
  %21 = load ptr, ptr %7, align 8, !tbaa !9
  %22 = load ptr, ptr %4, align 8, !tbaa !9
  %23 = icmp ne ptr %21, %22
  br i1 %23, label %24, label %31

24:                                               ; preds = %18
  %25 = load ptr, ptr %4, align 8, !tbaa !9
  %26 = load ptr, ptr %7, align 8, !tbaa !9
  %27 = load ptr, ptr %4, align 8, !tbaa !9
  %28 = ptrtoint ptr %26 to i64
  %29 = ptrtoint ptr %27 to i64
  %30 = sub i64 %28, %29
  call void @strbuf_add(ptr noundef %5, ptr noundef %25, i64 noundef %30)
  call void @strbuf_addch(ptr noundef %5, i32 noundef 47)
  br label %31

31:                                               ; preds = %24, %18
  %32 = load ptr, ptr %3, align 8, !tbaa !9
  call void @strbuf_addstr(ptr noundef %5, ptr noundef %32)
  %33 = getelementptr inbounds nuw %struct.strbuf, ptr %5, i32 0, i32 2
  %34 = load ptr, ptr %33, align 8, !tbaa !18
  %35 = call i32 @is_executable(ptr noundef %34)
  %36 = icmp ne i32 %35, 0
  br i1 %36, label %37, label %39

37:                                               ; preds = %31
  %38 = call ptr @strbuf_detach(ptr noundef %5, ptr noundef null)
  store ptr %38, ptr %2, align 8
  store i32 1, ptr %6, align 4
  br label %47

39:                                               ; preds = %31
  %40 = load ptr, ptr %7, align 8, !tbaa !9
  %41 = load i8, ptr %40, align 1, !tbaa !17
  %42 = icmp ne i8 %41, 0
  br i1 %42, label %44, label %43

43:                                               ; preds = %39
  store i32 3, ptr %6, align 4
  br label %47

44:                                               ; preds = %39
  %45 = load ptr, ptr %7, align 8, !tbaa !9
  %46 = getelementptr inbounds i8, ptr %45, i64 1
  store ptr %46, ptr %4, align 8, !tbaa !9
  store i32 0, ptr %6, align 4
  br label %47

47:                                               ; preds = %44, %43, %37
  call void @llvm.lifetime.end.p0(i64 8, ptr %7) #13
  %48 = load i32, ptr %6, align 4
  switch i32 %48, label %51 [
    i32 0, label %49
    i32 3, label %50
  ]

49:                                               ; preds = %47
  br label %17

50:                                               ; preds = %47
  call void @strbuf_release(ptr noundef %5)
  store ptr null, ptr %2, align 8
  store i32 1, ptr %6, align 4
  br label %51

51:                                               ; preds = %50, %47, %15
  call void @llvm.lifetime.end.p0(i64 24, ptr %5) #13
  call void @llvm.lifetime.end.p0(i64 8, ptr %4) #13
  %52 = load ptr, ptr %2, align 8
  ret ptr %52
}