; Function Attrs: nounwind uwtable
define internal fastcc ptr @locate_in_PATH(ptr noundef %0) unnamed_addr #3 {
  %2 = alloca %struct.stat, align 8
  %3 = alloca %struct.strbuf, align 8
  %4 = tail call ptr @getenv(ptr noundef nonnull @.str.35) #21
  call void @llvm.lifetime.start.p0(i64 24, ptr nonnull %3) #21
  call void @llvm.memcpy.p0.p0.i64(ptr noundef nonnull align 8 dereferenceable(24) %3, ptr noundef nonnull align 8 dereferenceable(24) @__const.prep_childenv.key, i64 24, i1 false)
  %.not = icmp eq ptr %4, null
  br i1 %.not, label %40, label %5

5:                                                ; preds = %1
  %6 = load i8, ptr %4, align 1, !tbaa !11
  %.not17 = icmp eq i8 %6, 0
  br i1 %.not17, label %40, label %.preheader

.preheader:                                       ; preds = %5
  %7 = getelementptr inbounds nuw i8, ptr %3, i64 8
  %8 = getelementptr inbounds nuw i8, ptr %3, i64 16
  %9 = getelementptr inbounds nuw i8, ptr %2, i64 24
  br label %10

10:                                               ; preds = %.preheader, %36
  %.013 = phi ptr [ %38, %36 ], [ %4, %.preheader ]
  %11 = call ptr @strchrnul(ptr noundef nonnull %.013, i32 noundef 58) #22
  store i64 0, ptr %7, align 8, !tbaa !12
  %12 = load ptr, ptr %8, align 8, !tbaa !16
  %.not9.i = icmp eq ptr %12, @strbuf_slopbuf
  br i1 %.not9.i, label %strbuf_setlen.exit, label %13

13:                                               ; preds = %10
  store i8 0, ptr %12, align 1, !tbaa !11
  br label %strbuf_setlen.exit

strbuf_setlen.exit:                               ; preds = %10, %13
  %.not18 = icmp eq ptr %11, %.013
  br i1 %.not18, label %26, label %14

14:                                               ; preds = %strbuf_setlen.exit
  %15 = ptrtoint ptr %11 to i64
  %16 = ptrtoint ptr %.013 to i64
  %17 = sub i64 %15, %16
  call void @strbuf_add(ptr noundef nonnull %3, ptr noundef nonnull %.013, i64 noundef %17) #21
  %18 = load i64, ptr %3, align 8, !tbaa !17
  %.not.i.i = icmp eq i64 %18, 0
  br i1 %.not.i.i, label %strbuf_avail.exit.thread.i, label %strbuf_avail.exit.i

strbuf_avail.exit.i:                              ; preds = %14
  %19 = load i64, ptr %7, align 8, !tbaa !12
  %.neg.i = add i64 %19, 1
  %.not.i = icmp eq i64 %18, %.neg.i
  br i1 %.not.i, label %strbuf_avail.exit.thread.i, label %strbuf_addch.exit

strbuf_avail.exit.thread.i:                       ; preds = %strbuf_avail.exit.i, %14
  call void @strbuf_grow(ptr noundef nonnull %3, i64 noundef 1) #21
  %.pre.i = load i64, ptr %7, align 8, !tbaa !12
  %.pre7.i = add i64 %.pre.i, 1
  br label %strbuf_addch.exit

strbuf_addch.exit:                                ; preds = %strbuf_avail.exit.i, %strbuf_avail.exit.thread.i
  %.pre-phi.i = phi i64 [ %.pre7.i, %strbuf_avail.exit.thread.i ], [ %.neg.i, %strbuf_avail.exit.i ]
  %20 = phi i64 [ %.pre.i, %strbuf_avail.exit.thread.i ], [ %19, %strbuf_avail.exit.i ]
  %21 = load ptr, ptr %8, align 8, !tbaa !16
  store i64 %.pre-phi.i, ptr %7, align 8, !tbaa !12
  %22 = getelementptr inbounds nuw i8, ptr %21, i64 %20
  store i8 47, ptr %22, align 1, !tbaa !11
  %23 = load ptr, ptr %8, align 8, !tbaa !16
  %24 = load i64, ptr %7, align 8, !tbaa !12
  %25 = getelementptr inbounds nuw i8, ptr %23, i64 %24
  store i8 0, ptr %25, align 1, !tbaa !11
  br label %26

26:                                               ; preds = %strbuf_addch.exit, %strbuf_setlen.exit
  %27 = call i64 @strlen(ptr noundef nonnull dereferenceable(1) %0) #22
  call void @strbuf_add(ptr noundef nonnull %3, ptr noundef nonnull %0, i64 noundef %27) #21
  %28 = load ptr, ptr %8, align 8, !tbaa !16
  call void @llvm.lifetime.start.p0(i64 144, ptr nonnull %2) #21
  %29 = call i32 @stat64(ptr noundef readonly %28, ptr noundef nonnull %2) #21
  %.not.i22 = icmp eq i32 %29, 0
  br i1 %.not.i22, label %30, label %is_executable.exit.thread

30:                                               ; preds = %26
  %31 = load i32, ptr %9, align 8, !tbaa !4
  %32 = and i32 %31, 61440
  %33 = icmp eq i32 %32, 32768
  br i1 %33, label %is_executable.exit, label %is_executable.exit.thread

is_executable.exit.thread:                        ; preds = %26, %30
  call void @llvm.lifetime.end.p0(i64 144, ptr nonnull %2) #21
  br label %36

is_executable.exit:                               ; preds = %30
  %34 = and i32 %31, 64
  call void @llvm.lifetime.end.p0(i64 144, ptr nonnull %2) #21
  %.not19 = icmp eq i32 %34, 0
  br i1 %.not19, label %36, label %.thread

.thread:                                          ; preds = %is_executable.exit
  %35 = call ptr @strbuf_detach(ptr noundef nonnull %3, ptr noundef null) #21
  br label %40

36:                                               ; preds = %is_executable.exit.thread, %is_executable.exit
  %37 = load i8, ptr %11, align 1, !tbaa !11
  %.not20 = icmp eq i8 %37, 0
  %38 = getelementptr inbounds nuw i8, ptr %11, i64 1
  br i1 %.not20, label %39, label %10

39:                                               ; preds = %36
  call void @strbuf_release(ptr noundef nonnull %3) #21
  br label %40

40:                                               ; preds = %.thread, %1, %5, %39
  %.0 = phi ptr [ null, %39 ], [ null, %5 ], [ null, %1 ], [ %35, %.thread ]
  call void @llvm.lifetime.end.p0(i64 24, ptr nonnull %3) #21
  ret ptr %.0
}